target datalayout = "e-m:e-p270:32:32-p271:32:32-p272:64:64-i64:64-i128:128-f80:128-n8:16:32:64-S128"
target triple = "x86_64-pc-linux-gnu"

%struct.darktable_t = type { %struct.dt_codepath_t, i32, i32, ptr, ptr, ptr, ptr, ptr, ptr, ptr, ptr, ptr, ptr, ptr, ptr, ptr, ptr, ptr, ptr, ptr, ptr, ptr, ptr, ptr, ptr, ptr, ptr, ptr, ptr, ptr, [64 x %struct.dt_pthread_mutex_t], %struct.dt_pthread_mutex_t, %struct.dt_pthread_mutex_t, %struct.dt_pthread_mutex_t, %struct.dt_pthread_mutex_t, %struct.dt_pthread_mutex_t, ptr, ptr, ptr, ptr, ptr, ptr, ptr, ptr, ptr, ptr, ptr, ptr, ptr, %struct.dt_lua_state_t, ptr, double, ptr, i32, [47 x i32], i32, i32, ptr, ptr, %struct.dt_sys_resources_t, %struct.dt_backthumb_t, %struct.dt_gimp_t }
%struct.dt_codepath_t = type { i8, [3 x i8] }
%struct.dt_pthread_mutex_t = type { %union.pthread_mutex_t }
%union.pthread_mutex_t = type { %struct.__pthread_mutex_s }
%struct.__pthread_mutex_s = type { i32, i32, i32, i32, i32, i16, i16, %struct.__pthread_internal_list }
%struct.__pthread_internal_list = type { ptr, ptr }
%struct.dt_lua_state_t = type { i32 }
%struct.dt_sys_resources_t = type { i64, i64, ptr, ptr, i32 }
%struct.dt_backthumb_t = type { double, double, i32, i32, i32, i32 }
%struct.dt_gimp_t = type { i32, ptr, ptr, i32, i32 }
%struct.dt_selection_t = type { ptr, i32 }
%struct.dt_image_t = type { i32, i32, float, float, float, float, float, float, float, [64 x i8], [64 x i8], [128 x i8], [64 x i8], [64 x i8], [64 x i8], [64 x i8], i64, i32, %union.dt_image_correction_data_t, [64 x i8], [64 x i8], [64 x i8], [128 x i8], i32, [256 x i8], i32, i32, i32, i32, i32, i32, i32, i32, i32, i32, float, i32, i32, i32, i32, i32, i32, i64, i64, i64, i64, i32, [12 x i8], %struct.dt_iop_buffer_dsc_t, [9 x float], ptr, i32, i32, %struct.dt_image_raw_parameters_t, %struct.dt_image_geoloc_t, %struct._color_harmony_t, i16, [4 x i16], i32, i32, float, float, [4 x float], [4 x [3 x float]], [4 x float], ptr, ptr, i32, i32, [8 x i8] }
%union.dt_image_correction_data_t = type { %struct.anon.0 }
%struct.anon.0 = type { i32, float, [11 x float], [11 x float], [11 x float], [11 x float], [11 x float] }
%struct.dt_iop_buffer_dsc_t = type { i32, i32, i32, [6 x [6 x i8]], %struct.anon.3, [12 x i8], %struct.anon.4, [4 x float], i32, [12 x i8] }
%struct.anon.3 = type { i16, i16 }
%struct.anon.4 = type { i32, [12 x i8], [4 x float] }
%struct.dt_image_raw_parameters_t = type { i32 }
%struct.dt_image_geoloc_t = type { double, double, double }
%struct._color_harmony_t = type { i32, i32, i32 }
%struct.dt_gui_gtk_t = type { ptr, %struct.dt_gui_widgets_t, %struct.dt_gui_scrollbars_t, i32, ptr, i32, [39 x %struct._GdkRGBA], i32, i32, i32, i32, i32, double, double, double, double, ptr, double, double, double, double, i32, i32, [4096 x i8], i32, i32, i32, %struct.dt_pthread_mutex_t }
%struct.dt_gui_widgets_t = type { ptr, ptr, ptr, ptr, i32, i32, i32 }
%struct.dt_gui_scrollbars_t = type { ptr, ptr, i32 }
%struct._GdkRGBA = type { double, double, double, double }

@darktable = external global %struct.darktable_t, align 8
@.str.3 = private unnamed_addr constant [120 x i8] c"generated/home/dtcxzyw/WorkSpace/Projects/compilers/llvm-opt-benchmark/bench/darktable/darktable/src/common/selection.c\00", align 1
@.str.5 = private unnamed_addr constant [38 x i8] c"[sql] %s:%d, function %s(): exec \22%s\22\00", align 1
@stderr = external global ptr, align 8
@.str.7 = private unnamed_addr constant [53 x i8] c"sqlite3 error: %s:%d, function %s(), query \22%s\22: %s\0A\00", align 1
@.str.11 = private unnamed_addr constant [50 x i8] c"DELETE FROM main.selected_images WHERE imgid = %u\00", align 1
@.str.12 = private unnamed_addr constant [97 x i8] c"DELETE FROM main.selected_images WHERE imgid IN (SELECT id FROM main.images WHERE group_id = %d)\00", align 1
@__FUNCTION__.dt_selection_deselect = private unnamed_addr constant [22 x i8] c"dt_selection_deselect\00", align 1
@.str.26 = private unnamed_addr constant [40 x i8] c"[signal] raise %s; %s:%d, function %s()\00", align 1
@.str.27 = private unnamed_addr constant [28 x i8] c"DT_SIGNAL_SELECTION_CHANGED\00", align 1
@__FUNCTION__._selection_raise_signal = private unnamed_addr constant [24 x i8] c"_selection_raise_signal\00", align 1

; Function Attrs: nounwind uwtable
define internal void @_selection_raise_signal() #0 {
  call void @dt_act_on_reset_cache(i32 noundef 1)
  call void @dt_act_on_reset_cache(i32 noundef 0)
  br label %1

1:                                                ; preds = %0
  %2 = load i32, ptr getelementptr inbounds nuw (%struct.darktable_t, ptr @darktable, i32 0, i32 53), align 8, !tbaa !55
  %3 = and i32 %2, 1
  %4 = icmp ne i32 %3, 0
  br i1 %4, label %5, label %21

5:                                                ; preds = %1
  %6 = load i32, ptr getelementptr inbounds ([47 x i32], ptr getelementptr inbounds nuw (%struct.darktable_t, ptr @darktable, i32 0, i32 54), i64 0, i64 8), align 4, !tbaa !56
  %7 = icmp ne i32 %6, 0
  br i1 %7, label %8, label %21

8:                                                ; preds = %5
  br label %9

9:                                                ; preds = %8
  %10 = load i32, ptr getelementptr inbounds nuw (%struct.darktable_t, ptr @darktable, i32 0, i32 2), align 8, !tbaa !57
  %11 = and i32 1048576, %10
  %12 = icmp ne i32 %11, 0
  br i1 %12, label %13, label %19

13:                                               ; preds = %9
  %14 = load i32, ptr getelementptr inbounds nuw (%struct.darktable_t, ptr @darktable, i32 0, i32 2), align 8, !tbaa !57
  %15 = xor i32 %14, -1
  %16 = and i32 0, %15
  %17 = icmp ne i32 %16, 0
  br i1 %17, label %19, label %18

18:                                               ; preds = %13
  call void (ptr, ...) @dt_print_ext(ptr noundef @.str.26, ptr noundef @.str.27, ptr noundef @.str.3, i32 noundef 48, ptr noundef @__FUNCTION__._selection_raise_signal)
  br label %19

19:                                               ; preds = %18, %13, %9
  br label %20

20:                                               ; preds = %19
  br label %21

21:                                               ; preds = %20, %5, %1
  %22 = load ptr, ptr getelementptr inbounds nuw (%struct.darktable_t, ptr @darktable, i32 0, i32 13), align 8, !tbaa !58
  call void (ptr, i32, ...) @dt_control_signal_raise(ptr noundef %22, i32 noundef 8)
  br label %23

23:                                               ; preds = %21
  ret void
}

; Function Attrs: nounwind uwtable
define void @dt_selection_deselect(ptr noundef %0, i32 noundef %1) #0 {
  %3 = alloca ptr, align 8
  %4 = alloca i32, align 4
  %5 = alloca ptr, align 8
  %6 = alloca i32, align 4
  %7 = alloca ptr, align 8
  %8 = alloca i32, align 4
  store ptr %0, ptr %3, align 8, !tbaa !6
  store i32 %1, ptr %4, align 4, !tbaa !56
  %9 = load ptr, ptr %3, align 8, !tbaa !6
  %10 = getelementptr inbounds nuw %struct.dt_selection_t, ptr %9, i32 0, i32 1
  store i32 0, ptr %10, align 8, !tbaa !15
  %11 = load i32, ptr %4, align 4, !tbaa !56
  %12 = icmp sgt i32 %11, 0
  br i1 %12, label %13, label %78

13:                                               ; preds = %2
  call void @llvm.lifetime.start.p0(i64 8, ptr %5) #5
  %14 = load ptr, ptr getelementptr inbounds nuw (%struct.darktable_t, ptr @darktable, i32 0, i32 16), align 8, !tbaa !64
  %15 = load i32, ptr %4, align 4, !tbaa !56
  %16 = call ptr @dt_image_cache_get(ptr noundef %14, i32 noundef %15, i8 noundef signext 114)
  store ptr %16, ptr %5, align 8, !tbaa !65
  %17 = load ptr, ptr %5, align 8, !tbaa !65
  %18 = icmp ne ptr %17, null
  br i1 %18, label %19, label %77

19:                                               ; preds = %13
  call void @llvm.lifetime.start.p0(i64 4, ptr %6) #5
  %20 = load ptr, ptr %5, align 8, !tbaa !65
  %21 = getelementptr inbounds nuw %struct.dt_image_t, ptr %20, i32 0, i32 41
  %22 = load i32, ptr %21, align 4, !tbaa !67
  store i32 %22, ptr %6, align 4, !tbaa !56
  %23 = load ptr, ptr getelementptr inbounds nuw (%struct.darktable_t, ptr @darktable, i32 0, i32 16), align 8, !tbaa !64
  %24 = load ptr, ptr %5, align 8, !tbaa !65
  call void @dt_image_cache_read_release(ptr noundef %23, ptr noundef %24)
  call void @llvm.lifetime.start.p0(i64 8, ptr %7) #5
  store ptr null, ptr %7, align 8, !tbaa !60
  %25 = load ptr, ptr getelementptr inbounds nuw (%struct.darktable_t, ptr @darktable, i32 0, i32 14), align 8, !tbaa !78
  %26 = icmp ne ptr %25, null
  br i1 %26, label %27, label %38

27:                                               ; preds = %19
  %28 = load ptr, ptr getelementptr inbounds nuw (%struct.darktable_t, ptr @darktable, i32 0, i32 14), align 8, !tbaa !78
  %29 = getelementptr inbounds nuw %struct.dt_gui_gtk_t, ptr %28, i32 0, i32 8
  %30 = load i32, ptr %29, align 4, !tbaa !79
  %31 = icmp ne i32 %30, 0
  br i1 %31, label %32, label %38

32:                                               ; preds = %27
  %33 = load ptr, ptr getelementptr inbounds nuw (%struct.darktable_t, ptr @darktable, i32 0, i32 14), align 8, !tbaa !78
  %34 = getelementptr inbounds nuw %struct.dt_gui_gtk_t, ptr %33, i32 0, i32 9
  %35 = load i32, ptr %34, align 8, !tbaa !85
  %36 = load i32, ptr %6, align 4, !tbaa !56
  %37 = icmp eq i32 %35, %36
  br i1 %37, label %38, label %41

38:                                               ; preds = %32, %27, %19
  %39 = load i32, ptr %4, align 4, !tbaa !56
  %40 = call noalias ptr (ptr, ...) @g_strdup_printf(ptr noundef @.str.11, i32 noundef %39)
  store ptr %40, ptr %7, align 8, !tbaa !60
  br label %44

41:                                               ; preds = %32
  %42 = load i32, ptr %6, align 4, !tbaa !56
  %43 = call noalias ptr (ptr, ...) @g_strdup_printf(ptr noundef @.str.12, i32 noundef %42)
  store ptr %43, ptr %7, align 8, !tbaa !60
  br label %44

44:                                               ; preds = %41, %38
  br label %45

45:                                               ; preds = %44
  br label %46

46:                                               ; preds = %45
  %47 = load i32, ptr getelementptr inbounds nuw (%struct.darktable_t, ptr @darktable, i32 0, i32 2), align 8, !tbaa !57
  %48 = and i32 256, %47
  %49 = icmp ne i32 %48, 0
  br i1 %49, label %50, label %57

50:                                               ; preds = %46
  %51 = load i32, ptr getelementptr inbounds nuw (%struct.darktable_t, ptr @darktable, i32 0, i32 2), align 8, !tbaa !57
  %52 = xor i32 %51, -1
  %53 = and i32 0, %52
  %54 = icmp ne i32 %53, 0
  br i1 %54, label %57, label %55

55:                                               ; preds = %50
  %56 = load ptr, ptr %7, align 8, !tbaa !60
  call void (ptr, ...) @dt_print_ext(ptr noundef @.str.5, ptr noundef @.str.3, i32 noundef 240, ptr noundef @__FUNCTION__.dt_selection_deselect, ptr noundef %56)
  br label %57

57:                                               ; preds = %55, %50, %46
  br label %58

58:                                               ; preds = %57
  br label %59

59:                                               ; preds = %58
  call void @llvm.lifetime.start.p0(i64 4, ptr %8) #5
  %60 = load ptr, ptr getelementptr inbounds nuw (%struct.darktable_t, ptr @darktable, i32 0, i32 18), align 8, !tbaa !61
  %61 = call ptr @dt_database_get(ptr noundef %60)
  %62 = load ptr, ptr %7, align 8, !tbaa !60
  %63 = call i32 @sqlite3_exec(ptr noundef %61, ptr noundef %62, ptr noundef null, ptr noundef null, ptr noundef null)
  store i32 %63, ptr %8, align 4, !tbaa !56
  %64 = load i32, ptr %8, align 4, !tbaa !56
  %65 = icmp ne i32 %64, 0
  br i1 %65, label %66, label %73

66:                                               ; preds = %59
  %67 = load ptr, ptr @stderr, align 8, !tbaa !62
  %68 = load ptr, ptr %7, align 8, !tbaa !60
  %69 = load ptr, ptr getelementptr inbounds nuw (%struct.darktable_t, ptr @darktable, i32 0, i32 18), align 8, !tbaa !61
  %70 = call ptr @dt_database_get(ptr noundef %69)
  %71 = call ptr @sqlite3_errmsg(ptr noundef %70)
  %72 = call i32 (ptr, ptr, ...) @fprintf(ptr noundef %67, ptr noundef @.str.7, ptr noundef @.str.3, i32 noundef 240, ptr noundef @__FUNCTION__.dt_selection_deselect, ptr noundef %68, ptr noundef %71) #5
  br label %73

73:                                               ; preds = %66, %59
  call void @llvm.lifetime.end.p0(i64 4, ptr %8) #5
  br label %74

74:                                               ; preds = %73
  br label %75

75:                                               ; preds = %74
  %76 = load ptr, ptr %7, align 8, !tbaa !60
  call void @g_free(ptr noundef %76)
  call void @llvm.lifetime.end.p0(i64 8, ptr %7) #5
  call void @llvm.lifetime.end.p0(i64 4, ptr %6) #5
  br label %77

77:                                               ; preds = %75, %13
  call void @llvm.lifetime.end.p0(i64 8, ptr %5) #5
  br label %78

78:                                               ; preds = %77, %2
  call void @_selection_raise_signal()
  %79 = load ptr, ptr getelementptr inbounds nuw (%struct.darktable_t, ptr @darktable, i32 0, i32 21), align 8, !tbaa !16
  call void @dt_collection_hint_message(ptr noundef %79)
  ret void
}