; Function Attrs: nounwind uwtable
define void @dt_selection_deselect(ptr noundef writeonly captures(none) initializes((8, 12)) %0, i32 noundef %1) local_unnamed_addr #1 {
  %3 = getelementptr inbounds nuw i8, ptr %0, i64 8
  store i32 0, ptr %3, align 8, !tbaa !50
  %4 = icmp sgt i32 %1, 0
  br i1 %4, label %5, label %39

5:                                                ; preds = %2
  %6 = load ptr, ptr getelementptr inbounds nuw (i8, ptr @darktable, i64 120), align 8, !tbaa !59
  %7 = tail call ptr @dt_image_cache_get(ptr noundef %6, i32 noundef %1, i8 noundef signext 114) #8
  %.not = icmp eq ptr %7, null
  br i1 %.not, label %39, label %8

8:                                                ; preds = %5
  %9 = getelementptr inbounds nuw i8, ptr %7, i64 1436
  %10 = load i32, ptr %9, align 4, !tbaa !60
  %11 = load ptr, ptr getelementptr inbounds nuw (i8, ptr @darktable, i64 120), align 8, !tbaa !59
  tail call void @dt_image_cache_read_release(ptr noundef %11, ptr noundef nonnull %7) #8
  %12 = load ptr, ptr getelementptr inbounds nuw (i8, ptr @darktable, i64 104), align 8, !tbaa !71
  %.not17 = icmp eq ptr %12, null
  br i1 %.not17, label %20, label %13

13:                                               ; preds = %8
  %14 = getelementptr inbounds nuw i8, ptr %12, i64 1356
  %15 = load i32, ptr %14, align 4, !tbaa !72
  %.not18 = icmp eq i32 %15, 0
  br i1 %.not18, label %20, label %16

16:                                               ; preds = %13
  %17 = getelementptr inbounds nuw i8, ptr %12, i64 1360
  %18 = load i32, ptr %17, align 8, !tbaa !78
  %19 = icmp eq i32 %18, %10
  br i1 %19, label %20, label %22

20:                                               ; preds = %16, %13, %8
  %21 = tail call noalias ptr (ptr, ...) @g_strdup_printf(ptr noundef nonnull @.str.11, i32 noundef %1) #8
  br label %24

22:                                               ; preds = %16
  %23 = tail call noalias ptr (ptr, ...) @g_strdup_printf(ptr noundef nonnull @.str.12, i32 noundef %10) #8
  br label %24

24:                                               ; preds = %22, %20
  %.0 = phi ptr [ %21, %20 ], [ %23, %22 ]
  %25 = load i32, ptr getelementptr inbounds nuw (i8, ptr @darktable, i64 8), align 8, !tbaa !54
  %26 = and i32 %25, 256
  %.not19 = icmp eq i32 %26, 0
  br i1 %.not19, label %28, label %27

27:                                               ; preds = %24
  tail call void (ptr, ...) @dt_print_ext(ptr noundef nonnull @.str.5, ptr noundef nonnull @.str.3, i32 noundef 240, ptr noundef nonnull @__FUNCTION__.dt_selection_deselect, ptr noundef %.0) #8
  br label %28

28:                                               ; preds = %27, %24
  %29 = load ptr, ptr getelementptr inbounds nuw (i8, ptr @darktable, i64 136), align 8, !tbaa !56
  %30 = tail call ptr @dt_database_get(ptr noundef %29) #8
  %31 = tail call i32 @sqlite3_exec(ptr noundef %30, ptr noundef %.0, ptr noundef null, ptr noundef null, ptr noundef null) #8
  %.not20 = icmp eq i32 %31, 0
  br i1 %.not20, label %38, label %32

32:                                               ; preds = %28
  %33 = load ptr, ptr @stderr, align 8, !tbaa !57
  %34 = load ptr, ptr getelementptr inbounds nuw (i8, ptr @darktable, i64 136), align 8, !tbaa !56
  %35 = tail call ptr @dt_database_get(ptr noundef %34) #8
  %36 = tail call ptr @sqlite3_errmsg(ptr noundef %35) #8
  %37 = tail call i32 (ptr, ptr, ...) @fprintf(ptr noundef %33, ptr noundef nonnull @.str.7, ptr noundef nonnull @.str.3, i32 noundef 240, ptr noundef nonnull @__FUNCTION__.dt_selection_deselect, ptr noundef %.0, ptr noundef %36) #9
  br label %38

38:                                               ; preds = %32, %28
  tail call void @g_free(ptr noundef %.0) #8
  br label %39

39:                                               ; preds = %5, %38, %2
  tail call void @dt_act_on_reset_cache(i32 noundef 1) #8
  tail call void @dt_act_on_reset_cache(i32 noundef 0) #8
  %40 = load i32, ptr getelementptr inbounds nuw (i8, ptr @darktable, i64 3128), align 8, !tbaa !53
  %41 = and i32 %40, 1
  %42 = icmp ne i32 %41, 0
  %43 = load i32, ptr getelementptr inbounds nuw (i8, ptr @darktable, i64 3164), align 4
  %44 = icmp ne i32 %43, 0
  %or.cond.i = select i1 %42, i1 %44, i1 false
  br i1 %or.cond.i, label %45, label %_selection_raise_signal.exit

45:                                               ; preds = %39
  %46 = load i32, ptr getelementptr inbounds nuw (i8, ptr @darktable, i64 8), align 8, !tbaa !54
  %47 = and i32 %46, 1048576
  %.not.i = icmp eq i32 %47, 0
  br i1 %.not.i, label %_selection_raise_signal.exit, label %48

48:                                               ; preds = %45
  tail call void (ptr, ...) @dt_print_ext(ptr noundef nonnull @.str.26, ptr noundef nonnull @.str.27, ptr noundef nonnull @.str.3, i32 noundef 48, ptr noundef nonnull @__FUNCTION__._selection_raise_signal) #8
  br label %_selection_raise_signal.exit

_selection_raise_signal.exit:                     ; preds = %39, %45, %48
  %49 = load ptr, ptr getelementptr inbounds nuw (i8, ptr @darktable, i64 96), align 8, !tbaa !55
  tail call void (ptr, i32, ...) @dt_control_signal_raise(ptr noundef %49, i32 noundef 8) #8
  %50 = load ptr, ptr getelementptr inbounds nuw (i8, ptr @darktable, i64 160), align 8, !tbaa !13
  tail call void @dt_collection_hint_message(ptr noundef %50) #8
  ret void
}